target datalayout = "e-m:e-p270:32:32-p271:32:32-p272:64:64-i64:64-i128:128-f80:128-n8:16:32:64-S128"
target triple = "x86_64-pc-linux-gnu"

%"class.icu_77::DateFormat" = type { %"class.icu_77::Format", ptr, ptr, %"class.icu_77::EnumSet", i32 }
%"class.icu_77::Format" = type { %"class.icu_77::UObject", ptr, ptr }
%"class.icu_77::UObject" = type { ptr }
%"class.icu_77::EnumSet" = type { i32 }

; Function Attrs: inlinehint mustprogress nounwind uwtable
define internal noundef signext i8 @_ZL9U_SUCCESS10UErrorCode(i32 noundef %0) #7 {
  %2 = alloca i32, align 4
  store i32 %0, ptr %2, align 4, !tbaa !44
  %3 = load i32, ptr %2, align 4, !tbaa !44
  %4 = icmp sle i32 %3, 0
  %5 = zext i1 %4 to i8
  ret i8 %5
}

; Function Attrs: inlinehint mustprogress nounwind uwtable
define internal noundef signext i8 @_ZL9U_FAILURE10UErrorCode(i32 noundef %0) #7 {
  %2 = alloca i32, align 4
  store i32 %0, ptr %2, align 4, !tbaa !44
  %3 = load i32, ptr %2, align 4, !tbaa !44
  %4 = icmp sgt i32 %3, 0
  %5 = zext i1 %4 to i8
  ret i8 %5
}

; Function Attrs: mustprogress uwtable
define noundef ptr @_ZN6icu_7718RelativeDateFormat18initializeCalendarEPNS_8TimeZoneERKNS_6LocaleER10UErrorCode(ptr noundef nonnull align 8 dereferenceable(456) %0, ptr noundef %1, ptr noundef nonnull align 8 dereferenceable(217) %2, ptr noundef nonnull align 4 dereferenceable(4) %3) #1 align 2 {
  %5 = alloca ptr, align 8
  %6 = alloca ptr, align 8
  %7 = alloca ptr, align 8
  %8 = alloca ptr, align 8
  store ptr %0, ptr %5, align 8, !tbaa !3
  store ptr %1, ptr %6, align 8, !tbaa !52
  store ptr %2, ptr %7, align 8, !tbaa !41
  store ptr %3, ptr %8, align 8, !tbaa !43
  %9 = load ptr, ptr %5, align 8
  %10 = load ptr, ptr %8, align 8, !tbaa !43
  %11 = load i32, ptr %10, align 4, !tbaa !44
  %12 = call noundef signext i8 @_ZL9U_FAILURE10UErrorCode(i32 noundef %11)
  %13 = icmp ne i8 %12, 0
  br i1 %13, label %27, label %14

14:                                               ; preds = %4
  %15 = load ptr, ptr %6, align 8, !tbaa !52
  %16 = icmp ne ptr %15, null
  br i1 %16, label %17, label %19

17:                                               ; preds = %14
  %18 = load ptr, ptr %6, align 8, !tbaa !52
  br label %21

19:                                               ; preds = %14
  %20 = call noundef ptr @_ZN6icu_778TimeZone13createDefaultEv()
  br label %21

21:                                               ; preds = %19, %17
  %22 = phi ptr [ %18, %17 ], [ %20, %19 ]
  %23 = load ptr, ptr %7, align 8, !tbaa !41
  %24 = load ptr, ptr %8, align 8, !tbaa !43
  %25 = call noundef ptr @_ZN6icu_778Calendar14createInstanceEPNS_8TimeZoneERKNS_6LocaleER10UErrorCode(ptr noundef %22, ptr noundef nonnull align 8 dereferenceable(217) %23, ptr noundef nonnull align 4 dereferenceable(4) %24)
  %26 = getelementptr inbounds nuw %"class.icu_77::DateFormat", ptr %9, i32 0, i32 1
  store ptr %25, ptr %26, align 8, !tbaa !54
  br label %27

27:                                               ; preds = %21, %4
  %28 = load ptr, ptr %8, align 8, !tbaa !43
  %29 = load i32, ptr %28, align 4, !tbaa !44
  %30 = call noundef signext i8 @_ZL9U_SUCCESS10UErrorCode(i32 noundef %29)
  %31 = icmp ne i8 %30, 0
  br i1 %31, label %32, label %38

32:                                               ; preds = %27
  %33 = getelementptr inbounds nuw %"class.icu_77::DateFormat", ptr %9, i32 0, i32 1
  %34 = load ptr, ptr %33, align 8, !tbaa !54
  %35 = icmp eq ptr %34, null
  br i1 %35, label %36, label %38

36:                                               ; preds = %32
  %37 = load ptr, ptr %8, align 8, !tbaa !43
  store i32 7, ptr %37, align 4, !tbaa !44
  br label %38

38:                                               ; preds = %36, %32, %27
  %39 = getelementptr inbounds nuw %"class.icu_77::DateFormat", ptr %9, i32 0, i32 1
  %40 = load ptr, ptr %39, align 8, !tbaa !54
  ret ptr %40
}