; Function Attrs: mustprogress uwtable
define noundef ptr @_ZN6icu_7718RelativeDateFormat18initializeCalendarEPNS_8TimeZoneERKNS_6LocaleER10UErrorCode(ptr noundef nonnull align 8 captures(none) dereferenceable(456) %0, ptr noundef %1, ptr noundef nonnull align 8 dereferenceable(217) %2, ptr noundef nonnull align 4 dereferenceable(4) %3) local_unnamed_addr #1 align 2 {
  %5 = load i32, ptr %3, align 4, !tbaa !38
  %6 = icmp slt i32 %5, 1
  br i1 %6, label %7, label %.thread

.thread:                                          ; preds = %4
  %.phi.trans.insert = getelementptr inbounds nuw i8, ptr %0, i64 24
  %.pre12 = load ptr, ptr %.phi.trans.insert, align 8
  br label %17

7:                                                ; preds = %4
  %.not8 = icmp eq ptr %1, null
  br i1 %.not8, label %8, label %10

8:                                                ; preds = %7
  %9 = tail call noundef ptr @_ZN6icu_778TimeZone13createDefaultEv()
  br label %10

10:                                               ; preds = %8, %7
  %11 = phi ptr [ %9, %8 ], [ %1, %7 ]
  %12 = tail call noundef ptr @_ZN6icu_778Calendar14createInstanceEPNS_8TimeZoneERKNS_6LocaleER10UErrorCode(ptr noundef %11, ptr noundef nonnull align 8 dereferenceable(217) %2, ptr noundef nonnull align 4 dereferenceable(4) %3)
  %13 = getelementptr inbounds nuw i8, ptr %0, i64 24
  store ptr %12, ptr %13, align 8, !tbaa !40
  %.pre = load i32, ptr %3, align 4, !tbaa !38
  %14 = icmp slt i32 %.pre, 1
  %15 = icmp eq ptr %12, null
  %or.cond = and i1 %14, %15
  br i1 %or.cond, label %16, label %17

16:                                               ; preds = %10
  store i32 7, ptr %3, align 4, !tbaa !38
  br label %17

17:                                               ; preds = %.thread, %16, %10
  %18 = phi ptr [ %.pre12, %.thread ], [ null, %16 ], [ %12, %10 ]
  ret ptr %18
}